; Function Attrs: mustprogress uwtable
define noundef i64 @_ZNK7rocksdb19MemTableListVersion33MemoryAllocatedBytesExcludingLastEv(ptr noundef nonnull readonly align 8 dereferenceable(88) %0) local_unnamed_addr #4 align 2 personality ptr @__gxx_personality_v0 {
  %.sroa.014.018 = load ptr, ptr %0, align 8, !tbaa !18
  %.not19 = icmp eq ptr %.sroa.014.018, %0
  br i1 %.not19, label %._crit_edge, label %.lr.ph

._crit_edge:                                      ; preds = %.lr.ph, %1
  %.0.lcssa = phi i64 [ 0, %1 ], [ %9, %.lr.ph ]
  %2 = getelementptr inbounds nuw i8, ptr %0, i64 24
  %.sroa.010.022 = load ptr, ptr %2, align 8, !tbaa !18
  %.not1723 = icmp eq ptr %.sroa.010.022, %2
  br i1 %.not1723, label %._crit_edge28.thread, label %.lr.ph27

.lr.ph:                                           ; preds = %1, %.lr.ph
  %.sroa.014.021 = phi ptr [ %.sroa.014.0, %.lr.ph ], [ %.sroa.014.018, %1 ]
  %.020 = phi i64 [ %9, %.lr.ph ], [ 0, %1 ]
  %3 = getelementptr inbounds nuw i8, ptr %.sroa.014.021, i64 16
  %4 = load ptr, ptr %3, align 8, !tbaa !21
  %5 = load ptr, ptr %4, align 8, !tbaa !27
  %6 = getelementptr inbounds nuw i8, ptr %5, i64 32
  %7 = load ptr, ptr %6, align 8
  %8 = tail call noundef i64 %7(ptr noundef nonnull align 8 dereferenceable(560) %4)
  %9 = add i64 %8, %.020
  %.sroa.014.0 = load ptr, ptr %.sroa.014.021, align 8, !tbaa !18
  %.not = icmp eq ptr %.sroa.014.0, %0
  br i1 %.not, label %._crit_edge, label %.lr.ph

._crit_edge28:                                    ; preds = %.lr.ph27
  %.pre = load ptr, ptr %2, align 8, !tbaa !18
  %10 = icmp eq ptr %.pre, %2
  br i1 %10, label %._crit_edge28.thread, label %18

.lr.ph27:                                         ; preds = %._crit_edge, %.lr.ph27
  %.sroa.010.025 = phi ptr [ %.sroa.010.0, %.lr.ph27 ], [ %.sroa.010.022, %._crit_edge ]
  %.124 = phi i64 [ %17, %.lr.ph27 ], [ %.0.lcssa, %._crit_edge ]
  %11 = getelementptr inbounds nuw i8, ptr %.sroa.010.025, i64 16
  %12 = load ptr, ptr %11, align 8, !tbaa !21
  %13 = load ptr, ptr %12, align 8, !tbaa !27
  %14 = getelementptr inbounds nuw i8, ptr %13, i64 32
  %15 = load ptr, ptr %14, align 8
  %16 = tail call noundef i64 %15(ptr noundef nonnull align 8 dereferenceable(560) %12)
  %17 = add i64 %16, %.124
  %.sroa.010.0 = load ptr, ptr %.sroa.010.025, align 8, !tbaa !18
  %.not17 = icmp eq ptr %.sroa.010.0, %2
  br i1 %.not17, label %._crit_edge28, label %.lr.ph27

18:                                               ; preds = %._crit_edge28
  %19 = getelementptr inbounds nuw i8, ptr %0, i64 32
  %20 = load ptr, ptr %19, align 8, !tbaa !98
  %21 = getelementptr inbounds nuw i8, ptr %20, i64 16
  %22 = load ptr, ptr %21, align 8, !tbaa !21
  %23 = load ptr, ptr %22, align 8, !tbaa !27
  %24 = getelementptr inbounds nuw i8, ptr %23, i64 32
  %25 = load ptr, ptr %24, align 8
  %26 = tail call noundef i64 %25(ptr noundef nonnull align 8 dereferenceable(560) %22)
  %27 = sub i64 %17, %26
  br label %._crit_edge28.thread

._crit_edge28.thread:                             ; preds = %._crit_edge, %18, %._crit_edge28
  %.2 = phi i64 [ %17, %._crit_edge28 ], [ %27, %18 ], [ %.0.lcssa, %._crit_edge ]
  ret i64 %.2
}